target datalayout = "e-m:e-p270:32:32-p271:32:32-p272:64:64-i64:64-i128:128-f80:128-n8:16:32:64-S128"
target triple = "x86_64-pc-linux-gnu"

%struct.H5C_tag_iter_vct_ctx_t = type { i8 }
%struct.H5C_cache_entry_t = type { ptr, i64, i64, ptr, i8, ptr, i8, i8, i8, i8, i32, i8, i8, i8, i8, i8, i32, ptr, i32, i32, i32, i32, i32, i8, i8, ptr, ptr, ptr, ptr, ptr, ptr, i8, i32, i8, i64, ptr, i64, i64, i32, i8, i32, i32, i8, ptr, ptr, ptr }
%struct.H5C_tag_info_t = type { i64, ptr, i64, i8, %struct.UT_hash_handle }
%struct.UT_hash_handle = type { ptr, ptr, ptr, ptr, ptr, ptr, i32, i32 }

@H5C_init_g = external global i8, align 1
@H5_libterm_g = external global i8, align 1
@.str = private unnamed_addr constant [101 x i8] c"generated/home/dtcxzyw/WorkSpace/Projects/compilers/llvm-opt-benchmark/bench/hdf5/hdf5/src/H5Ctest.c\00", align 1
@H5E_CACHE_g = external global i64, align 8
@__func__.H5C__verify_cork_tag_test_cb = private unnamed_addr constant [29 x i8] c"H5C__verify_cork_tag_test_cb\00", align 1
@H5E_BADVALUE_g = external global i64, align 8
@.str.4 = private unnamed_addr constant [16 x i8] c"bad cork status\00", align 1

; Function Attrs: nounwind uwtable
define internal i32 @H5C__verify_cork_tag_test_cb(ptr noundef %0, ptr noundef %1) #0 {
  %3 = alloca ptr, align 8
  %4 = alloca ptr, align 8
  %5 = alloca ptr, align 8
  %6 = alloca i8, align 1
  %7 = alloca i32, align 4
  %8 = alloca i8, align 1
  store ptr %0, ptr %3, align 8, !tbaa !45
  store ptr %1, ptr %4, align 8, !tbaa !47
  call void @llvm.lifetime.start.p0(i64 8, ptr %5) #4
  %9 = load ptr, ptr %4, align 8, !tbaa !47
  store ptr %9, ptr %5, align 8, !tbaa !47
  call void @llvm.lifetime.start.p0(i64 1, ptr %6) #4
  call void @llvm.lifetime.start.p0(i64 4, ptr %7) #4
  store i32 0, ptr %7, align 4, !tbaa !9
  call void @llvm.lifetime.start.p0(i64 1, ptr %8) #4
  store i8 0, ptr %8, align 1, !tbaa !7
  %10 = load i8, ptr @H5C_init_g, align 1, !tbaa !7, !range !11, !noundef !12
  %11 = trunc i8 %10 to i1
  br i1 %11, label %16, label %12

12:                                               ; preds = %2
  %13 = load i8, ptr @H5_libterm_g, align 1, !tbaa !7, !range !11, !noundef !12
  %14 = trunc i8 %13 to i1
  %15 = xor i1 %14, true
  br label %16

16:                                               ; preds = %12, %2
  %17 = phi i1 [ true, %2 ], [ %15, %12 ]
  %18 = xor i1 %17, true
  %19 = xor i1 %18, true
  %20 = zext i1 %19 to i32
  %21 = sext i32 %20 to i64
  %22 = call i64 @llvm.expect.i64(i64 %21, i64 1)
  %23 = icmp ne i64 %22, 0
  br i1 %23, label %24, label %72

24:                                               ; preds = %16
  %25 = load ptr, ptr %3, align 8, !tbaa !45
  %26 = getelementptr inbounds nuw %struct.H5C_cache_entry_t, ptr %25, i32 0, i32 45
  %27 = load ptr, ptr %26, align 8, !tbaa !48
  %28 = icmp ne ptr %27, null
  br i1 %28, label %29, label %37

29:                                               ; preds = %24
  %30 = load ptr, ptr %3, align 8, !tbaa !45
  %31 = getelementptr inbounds nuw %struct.H5C_cache_entry_t, ptr %30, i32 0, i32 45
  %32 = load ptr, ptr %31, align 8, !tbaa !48
  %33 = getelementptr inbounds nuw %struct.H5C_tag_info_t, ptr %32, i32 0, i32 3
  %34 = load i8, ptr %33, align 8, !tbaa !54, !range !11, !noundef !12
  %35 = trunc i8 %34 to i1
  %36 = zext i1 %35 to i32
  br label %38

37:                                               ; preds = %24
  br label %38

38:                                               ; preds = %37, %29
  %39 = phi i32 [ %36, %29 ], [ 0, %37 ]
  %40 = icmp ne i32 %39, 0
  %41 = zext i1 %40 to i8
  store i8 %41, ptr %6, align 1, !tbaa !7
  %42 = load i8, ptr %6, align 1, !tbaa !7, !range !11, !noundef !12
  %43 = trunc i8 %42 to i1
  %44 = zext i1 %43 to i32
  %45 = load ptr, ptr %5, align 8, !tbaa !47
  %46 = getelementptr inbounds nuw %struct.H5C_tag_iter_vct_ctx_t, ptr %45, i32 0, i32 0
  %47 = load i8, ptr %46, align 1, !tbaa !43, !range !11, !noundef !12
  %48 = trunc i8 %47 to i1
  %49 = zext i1 %48 to i32
  %50 = icmp ne i32 %44, %49
  br i1 %50, label %51, label %70

51:                                               ; preds = %38
  br label %52

52:                                               ; preds = %51
  br label %53

53:                                               ; preds = %52
  br label %54

54:                                               ; preds = %53
  %55 = load i64, ptr @H5E_CACHE_g, align 8, !tbaa !3
  %56 = load i64, ptr @H5E_BADVALUE_g, align 8, !tbaa !3
  %57 = call i32 (ptr, ptr, i32, i64, i64, ptr, ...) @H5E_printf_stack(ptr noundef @.str, ptr noundef @__func__.H5C__verify_cork_tag_test_cb, i32 noundef 99, i64 noundef %55, i64 noundef %56, ptr noundef @.str.4)
  br label %58

58:                                               ; preds = %54
  br label %59

59:                                               ; preds = %58
  store i8 1, ptr %8, align 1, !tbaa !7
  %60 = load i8, ptr %8, align 1, !tbaa !7, !range !11, !noundef !12
  %61 = trunc i8 %60 to i1
  %62 = zext i1 %61 to i8
  store i8 %62, ptr %8, align 1, !tbaa !7
  br label %63

63:                                               ; preds = %59
  br label %64

64:                                               ; preds = %63
  br label %65

65:                                               ; preds = %64
  store i32 -1, ptr %7, align 4, !tbaa !9
  br label %71

66:                                               ; No predecessors!
  br label %67

67:                                               ; preds = %66
  br label %68

68:                                               ; preds = %67
  br label %69

69:                                               ; preds = %68
  br label %70

70:                                               ; preds = %69, %38
  br label %71

71:                                               ; preds = %70, %65
  br label %72

72:                                               ; preds = %71, %16
  %73 = load i32, ptr %7, align 4, !tbaa !9
  call void @llvm.lifetime.end.p0(i64 1, ptr %8) #4
  call void @llvm.lifetime.end.p0(i64 4, ptr %7) #4
  call void @llvm.lifetime.end.p0(i64 1, ptr %6) #4
  call void @llvm.lifetime.end.p0(i64 8, ptr %5) #4
  ret i32 %73
}