; Function Attrs: nounwind uwtable
define internal range(i32 -1, 1) i32 @H5C__verify_cork_tag_test_cb(ptr noundef readonly captures(none) %0, ptr noundef readonly captures(none) %1) #0 {
  %3 = load i8, ptr @H5C_init_g, align 1, !tbaa !3, !range !7, !noundef !8
  %4 = trunc nuw i8 %3 to i1
  %5 = load i8, ptr @H5_libterm_g, align 1, !range !7
  %6 = trunc nuw i8 %5 to i1
  %7 = xor i1 %6, true
  %8 = select i1 %4, i1 true, i1 %7
  br i1 %8, label %9, label %24, !prof !9

9:                                                ; preds = %2
  %10 = getelementptr inbounds nuw i8, ptr %0, i64 240
  %11 = load ptr, ptr %10, align 8, !tbaa !43
  %.not = icmp eq ptr %11, null
  br i1 %.not, label %16, label %12

12:                                               ; preds = %9
  %13 = getelementptr inbounds nuw i8, ptr %11, i64 24
  %14 = load i8, ptr %13, align 8, !tbaa !50, !range !7, !noundef !8
  %15 = zext nneg i8 %14 to i32
  br label %16

16:                                               ; preds = %9, %12
  %17 = phi i32 [ %15, %12 ], [ 0, %9 ]
  %18 = load i8, ptr %1, align 1, !tbaa !41, !range !7, !noundef !8
  %19 = zext nneg i8 %18 to i32
  %.not7 = icmp eq i32 %17, %19
  br i1 %.not7, label %24, label %20

20:                                               ; preds = %16
  %21 = load i64, ptr @H5E_CACHE_g, align 8, !tbaa !10
  %22 = load i64, ptr @H5E_BADVALUE_g, align 8, !tbaa !10
  %23 = tail call i32 (ptr, ptr, i32, i64, i64, ptr, ...) @H5E_printf_stack(ptr noundef nonnull @.str, ptr noundef nonnull @__func__.H5C__verify_cork_tag_test_cb, i32 noundef 99, i64 noundef %21, i64 noundef %22, ptr noundef nonnull @.str.4) #3
  br label %24

24:                                               ; preds = %20, %16, %2
  %.0 = phi i32 [ -1, %20 ], [ 0, %16 ], [ 0, %2 ]
  ret i32 %.0
}